target datalayout = "e-m:e-p270:32:32-p271:32:32-p272:64:64-i64:64-i128:128-f80:128-n8:16:32:64-S128"
target triple = "x86_64-unknown-linux-gnu"

%"class.OpenImageIO_v2_6_0::basic_string_view" = type { ptr, i64 }

; Function Attrs: mustprogress nounwind uwtable
define linkonce_odr hidden noundef nonnull align 1 dereferenceable(1) ptr @_ZNK18OpenImageIO_v2_6_017basic_string_viewIcSt11char_traitsIcEEixEm(ptr noundef nonnull align 8 dereferenceable(16) %this, i64 noundef %pos) #4 comdat align 2 {
entry:
  %this.addr = alloca ptr, align 8
  %pos.addr = alloca i64, align 8
  store ptr %this, ptr %this.addr, align 8
  store i64 %pos, ptr %pos.addr, align 8
  %this1 = load ptr, ptr %this.addr, align 8
  %m_chars = getelementptr inbounds %"class.OpenImageIO_v2_6_0::basic_string_view", ptr %this1, i32 0, i32 0
  %0 = load ptr, ptr %m_chars, align 8
  %1 = load i64, ptr %pos.addr, align 8
  %arrayidx = getelementptr inbounds i8, ptr %0, i64 %1
  ret ptr %arrayidx
}

; Function Attrs: mustprogress nounwind uwtable
define linkonce_odr hidden noundef i64 @_ZNK18OpenImageIO_v2_6_017basic_string_viewIcSt11char_traitsIcEE6lengthEv(ptr noundef nonnull align 8 dereferenceable(16) %this) #4 comdat align 2 {
entry:
  %this.addr = alloca ptr, align 8
  store ptr %this, ptr %this.addr, align 8
  %this1 = load ptr, ptr %this.addr, align 8
  %m_len = getelementptr inbounds %"class.OpenImageIO_v2_6_0::basic_string_view", ptr %this1, i32 0, i32 1
  %0 = load i64, ptr %m_len, align 8
  ret i64 %0
}

; Function Attrs: mustprogress uwtable
define noundef zeroext i1 @_ZN18OpenImageIO_v2_6_010Filesystem16path_is_absoluteENS_17basic_string_viewIcSt11char_traitsIcEEEb(ptr noundef %path, i1 noundef zeroext %dot_is_absolute) #6 {
entry:
  %retval = alloca i1, align 1
  %path.indirect_addr = alloca ptr, align 8
  %dot_is_absolute.addr = alloca i8, align 1
  %len = alloca i64, align 8
  store ptr %path, ptr %path.indirect_addr, align 8
  %frombool = zext i1 %dot_is_absolute to i8
  store i8 %frombool, ptr %dot_is_absolute.addr, align 1
  %call = call noundef i64 @_ZNK18OpenImageIO_v2_6_017basic_string_viewIcSt11char_traitsIcEE6lengthEv(ptr noundef nonnull align 8 dereferenceable(16) %path) #3
  store i64 %call, ptr %len, align 8
  %0 = load i64, ptr %len, align 8
  %tobool = icmp ne i64 %0, 0
  br i1 %tobool, label %if.end, label %if.then

if.then:                                          ; preds = %entry
  store i1 false, ptr %retval, align 1
  br label %return

if.end:                                           ; preds = %entry
  %call1 = call noundef nonnull align 1 dereferenceable(1) ptr @_ZNK18OpenImageIO_v2_6_017basic_string_viewIcSt11char_traitsIcEEixEm(ptr noundef nonnull align 8 dereferenceable(16) %path, i64 noundef 0)
  %1 = load i8, ptr %call1, align 1
  %conv = sext i8 %1 to i32
  %cmp = icmp eq i32 %conv, 47
  br i1 %cmp, label %lor.end, label %lor.lhs.false

lor.lhs.false:                                    ; preds = %if.end
  %2 = load i8, ptr %dot_is_absolute.addr, align 1
  %tobool2 = trunc i8 %2 to i1
  br i1 %tobool2, label %land.lhs.true, label %lor.rhs

land.lhs.true:                                    ; preds = %lor.lhs.false
  %call3 = call noundef nonnull align 1 dereferenceable(1) ptr @_ZNK18OpenImageIO_v2_6_017basic_string_viewIcSt11char_traitsIcEEixEm(ptr noundef nonnull align 8 dereferenceable(16) %path, i64 noundef 0)
  %3 = load i8, ptr %call3, align 1
  %conv4 = sext i8 %3 to i32
  %cmp5 = icmp eq i32 %conv4, 46
  br i1 %cmp5, label %land.lhs.true6, label %lor.rhs

land.lhs.true6:                                   ; preds = %land.lhs.true
  %call7 = call noundef nonnull align 1 dereferenceable(1) ptr @_ZNK18OpenImageIO_v2_6_017basic_string_viewIcSt11char_traitsIcEEixEm(ptr noundef nonnull align 8 dereferenceable(16) %path, i64 noundef 1)
  %4 = load i8, ptr %call7, align 1
  %conv8 = sext i8 %4 to i32
  %cmp9 = icmp eq i32 %conv8, 47
  br i1 %cmp9, label %lor.end, label %lor.rhs

lor.rhs:                                          ; preds = %land.lhs.true6, %land.lhs.true, %lor.lhs.false
  %5 = load i8, ptr %dot_is_absolute.addr, align 1
  %tobool10 = trunc i8 %5 to i1
  br i1 %tobool10, label %land.lhs.true11, label %land.end

land.lhs.true11:                                  ; preds = %lor.rhs
  %call12 = call noundef nonnull align 1 dereferenceable(1) ptr @_ZNK18OpenImageIO_v2_6_017basic_string_viewIcSt11char_traitsIcEEixEm(ptr noundef nonnull align 8 dereferenceable(16) %path, i64 noundef 0)
  %6 = load i8, ptr %call12, align 1
  %conv13 = sext i8 %6 to i32
  %cmp14 = icmp eq i32 %conv13, 46
  br i1 %cmp14, label %land.lhs.true15, label %land.end

land.lhs.true15:                                  ; preds = %land.lhs.true11
  %call16 = call noundef nonnull align 1 dereferenceable(1) ptr @_ZNK18OpenImageIO_v2_6_017basic_string_viewIcSt11char_traitsIcEEixEm(ptr noundef nonnull align 8 dereferenceable(16) %path, i64 noundef 1)
  %7 = load i8, ptr %call16, align 1
  %conv17 = sext i8 %7 to i32
  %cmp18 = icmp eq i32 %conv17, 46
  br i1 %cmp18, label %land.rhs, label %land.end

land.rhs:                                         ; preds = %land.lhs.true15
  %call19 = call noundef nonnull align 1 dereferenceable(1) ptr @_ZNK18OpenImageIO_v2_6_017basic_string_viewIcSt11char_traitsIcEEixEm(ptr noundef nonnull align 8 dereferenceable(16) %path, i64 noundef 2)
  %8 = load i8, ptr %call19, align 1
  %conv20 = sext i8 %8 to i32
  %cmp21 = icmp eq i32 %conv20, 47
  br label %land.end

land.end:                                         ; preds = %land.rhs, %land.lhs.true15, %land.lhs.true11, %lor.rhs
  %9 = phi i1 [ false, %land.lhs.true15 ], [ false, %land.lhs.true11 ], [ false, %lor.rhs ], [ %cmp21, %land.rhs ]
  br label %lor.end

lor.end:                                          ; preds = %land.end, %land.lhs.true6, %if.end
  %10 = phi i1 [ true, %land.lhs.true6 ], [ true, %if.end ], [ %9, %land.end ]
  store i1 %10, ptr %retval, align 1
  br label %return

return:                                           ; preds = %lor.end, %if.then
  %11 = load i1, ptr %retval, align 1
  ret i1 %11
}