; Function Attrs: mustprogress nofree norecurse nosync nounwind willreturn memory(read, inaccessiblemem: none) uwtable
define noundef zeroext i1 @_ZN18OpenImageIO_v2_6_010Filesystem16path_is_absoluteENS_17basic_string_viewIcSt11char_traitsIcEEEb(ptr nocapture noundef readonly %path, i1 noundef zeroext %dot_is_absolute) local_unnamed_addr #8 {
entry:
  %m_len.i = getelementptr inbounds i8, ptr %path, i64 8
  %0 = load i64, ptr %m_len.i, align 8
  %tobool.not = icmp eq i64 %0, 0
  br i1 %tobool.not, label %return, label %if.end

if.end:                                           ; preds = %entry
  %1 = load ptr, ptr %path, align 8
  %2 = load i8, ptr %1, align 1
  %cmp = icmp eq i8 %2, 47
  %dot_is_absolute.not2 = xor i1 %dot_is_absolute, true
  %brmerge3 = or i1 %cmp, %dot_is_absolute.not2
  br i1 %brmerge3, label %return, label %land.lhs.true

land.lhs.true:                                    ; preds = %if.end
  %cmp5 = icmp eq i8 %2, 46
  br i1 %cmp5, label %land.lhs.true6, label %return

land.lhs.true6:                                   ; preds = %land.lhs.true
  %arrayidx.i = getelementptr inbounds i8, ptr %1, i64 1
  %3 = load i8, ptr %arrayidx.i, align 1
  switch i8 %3, label %return.fold.split [
    i8 47, label %return
    i8 46, label %land.rhs
  ]

land.rhs:                                         ; preds = %land.lhs.true6
  %arrayidx.i6 = getelementptr inbounds i8, ptr %1, i64 2
  %4 = load i8, ptr %arrayidx.i6, align 1
  %cmp21 = icmp eq i8 %4, 47
  br label %return

return.fold.split:                                ; preds = %land.lhs.true6
  br label %return

return:                                           ; preds = %land.lhs.true6, %return.fold.split, %land.lhs.true, %if.end, %land.rhs, %entry
  %retval.0 = phi i1 [ false, %entry ], [ true, %land.lhs.true6 ], [ %cmp, %if.end ], [ %cmp21, %land.rhs ], [ false, %land.lhs.true ], [ false, %return.fold.split ]
  ret i1 %retval.0
}